; Function Attrs: mustprogress nounwind uwtable
define hidden noundef ptr @_ZN10LinearScan15create_intervalEi(ptr nocapture noundef nonnull readonly align 8 dereferenceable(256) %0, i32 noundef %1) local_unnamed_addr #0 align 2 {
  %3 = tail call align 8 ptr @llvm.threadlocal.address.p0(ptr align 8 @_ZN6Thread12_thr_currentE)
  %4 = load ptr, ptr %3, align 8
  %5 = getelementptr inbounds i8, ptr %4, i64 1808
  %6 = load ptr, ptr %5, align 8
  %7 = getelementptr inbounds i8, ptr %6, i64 128
  %8 = load ptr, ptr %7, align 8
  %9 = load ptr, ptr %8, align 8
  %10 = getelementptr inbounds i8, ptr %9, i64 40
  %11 = load ptr, ptr %10, align 8
  %12 = getelementptr inbounds i8, ptr %9, i64 32
  %13 = load ptr, ptr %12, align 8
  %14 = ptrtoint ptr %11 to i64
  %15 = ptrtoint ptr %13 to i64
  %16 = sub i64 %14, %15
  %.not.i.i.i = icmp ult i64 %16, 136
  br i1 %.not.i.i.i, label %19, label %17

17:                                               ; preds = %2
  %18 = getelementptr inbounds i8, ptr %13, i64 136
  store ptr %18, ptr %12, align 8
  br label %_ZN22CompilationResourceObjnwEm.exit

19:                                               ; preds = %2
  %20 = tail call noundef ptr @_ZN5Arena4growEmN17AllocFailStrategy13AllocFailEnumE(ptr noundef nonnull align 8 dereferenceable(48) %9, i64 noundef 136, i32 noundef 0) #22
  br label %_ZN22CompilationResourceObjnwEm.exit

_ZN22CompilationResourceObjnwEm.exit:             ; preds = %17, %19
  %.0.i.i.i = phi ptr [ %13, %17 ], [ %20, %19 ]
  %21 = icmp eq ptr %.0.i.i.i, null
  br i1 %21, label %47, label %22

22:                                               ; preds = %_ZN22CompilationResourceObjnwEm.exit
  store i32 %1, ptr %.0.i.i.i, align 8
  %23 = getelementptr inbounds i8, ptr %.0.i.i.i, i64 4
  store i8 99, ptr %23, align 4
  %24 = getelementptr inbounds i8, ptr %.0.i.i.i, i64 8
  %25 = load ptr, ptr @_ZN5Range4_endE, align 8
  store ptr %25, ptr %24, align 8
  %26 = getelementptr inbounds i8, ptr %.0.i.i.i, i64 16
  %27 = tail call noundef ptr @_ZN30GrowableArrayResourceAllocator8allocateEii(i32 noundef 12, i32 noundef 4) #22
  store i32 0, ptr %26, align 4
  %28 = getelementptr inbounds i8, ptr %.0.i.i.i, i64 20
  store i32 12, ptr %28, align 4
  %29 = getelementptr inbounds i8, ptr %.0.i.i.i, i64 24
  store ptr %27, ptr %29, align 8
  tail call void @llvm.memset.p0.i64(ptr noundef nonnull align 4 dereferenceable(48) %27, i8 0, i64 48, i1 false)
  %30 = getelementptr inbounds i8, ptr %.0.i.i.i, i64 32
  store i64 0, ptr %30, align 8
  %31 = getelementptr inbounds i8, ptr %.0.i.i.i, i64 40
  %32 = load ptr, ptr @_ZN5Range4_endE, align 8
  store ptr %32, ptr %31, align 8
  %33 = getelementptr inbounds i8, ptr %.0.i.i.i, i64 48
  %34 = load ptr, ptr @_ZN8Interval4_endE, align 8
  store ptr %34, ptr %33, align 8
  %35 = getelementptr inbounds i8, ptr %.0.i.i.i, i64 56
  %36 = getelementptr inbounds i8, ptr %.0.i.i.i, i64 72
  tail call void @llvm.memset.p0.i64(ptr noundef nonnull align 8 dereferenceable(16) %35, i8 -1, i64 16, i1 false)
  %37 = load i64, ptr @_ZN11LIR_OprFact10illegalOprE, align 8
  store i64 %37, ptr %36, align 8
  %38 = getelementptr inbounds i8, ptr %.0.i.i.i, i64 80
  store ptr @all_VMRegs, ptr %38, align 8
  %39 = getelementptr inbounds i8, ptr %.0.i.i.i, i64 96
  store ptr null, ptr %39, align 8
  %40 = getelementptr inbounds i8, ptr %.0.i.i.i, i64 112
  store i32 -1, ptr %40, align 8
  %41 = getelementptr inbounds i8, ptr %.0.i.i.i, i64 116
  store i8 0, ptr %41, align 4
  %42 = getelementptr inbounds i8, ptr %.0.i.i.i, i64 120
  store i32 0, ptr %42, align 8
  %43 = getelementptr inbounds i8, ptr %.0.i.i.i, i64 124
  store i32 -1, ptr %43, align 4
  %44 = getelementptr inbounds i8, ptr %.0.i.i.i, i64 128
  store ptr null, ptr %44, align 8
  %45 = getelementptr inbounds i8, ptr %.0.i.i.i, i64 88
  store ptr %.0.i.i.i, ptr %45, align 8
  %46 = getelementptr inbounds i8, ptr %.0.i.i.i, i64 104
  store ptr %.0.i.i.i, ptr %46, align 8
  br label %47

47:                                               ; preds = %22, %_ZN22CompilationResourceObjnwEm.exit
  %48 = getelementptr inbounds i8, ptr %0, i64 88
  %49 = load ptr, ptr %48, align 8
  %50 = sext i32 %1 to i64
  %51 = getelementptr inbounds ptr, ptr %49, i64 %50
  store ptr %.0.i.i.i, ptr %51, align 8
  %52 = icmp slt i32 %1, 609
  br i1 %52, label %53, label %56

53:                                               ; preds = %47
  %54 = getelementptr inbounds i8, ptr %.0.i.i.i, i64 60
  store i32 %1, ptr %54, align 4
  %55 = getelementptr inbounds i8, ptr %.0.i.i.i, i64 64
  store i32 -1, ptr %55, align 8
  br label %56

56:                                               ; preds = %53, %47
  ret ptr %.0.i.i.i
}